target datalayout = "e-m:e-p270:32:32-p271:32:32-p272:64:64-i64:64-i128:128-f80:128-n8:16:32:64-S128"
target triple = "x86_64-pc-linux-gnu"

%struct.PKCS12_SAFEBAG_st = type { ptr, %union.anon, ptr }
%union.anon = type { ptr }

@.str = private unnamed_addr constant [36 x i8] c"../openssl/crypto/pkcs12/p12_sbag.c\00", align 1
@__func__.PKCS12_SAFEBAG_create0_pkcs8 = private unnamed_addr constant [29 x i8] c"PKCS12_SAFEBAG_create0_pkcs8\00", align 1

; Function Attrs: nounwind uwtable
define ptr @PKCS12_SAFEBAG_create0_pkcs8(ptr noundef %0) #0 {
  %2 = alloca ptr, align 8
  %3 = alloca ptr, align 8
  %4 = alloca ptr, align 8
  %5 = alloca i32, align 4
  store ptr %0, ptr %3, align 8, !tbaa !32
  call void @llvm.lifetime.start.p0(i64 8, ptr %4) #3
  %6 = call ptr @PKCS12_SAFEBAG_new()
  store ptr %6, ptr %4, align 8, !tbaa !3
  %7 = load ptr, ptr %4, align 8, !tbaa !3
  %8 = icmp eq ptr %7, null
  br i1 %8, label %9, label %10

9:                                                ; preds = %1
  call void @ERR_new()
  call void @ERR_set_debug(ptr noundef @.str, i32 noundef 230, ptr noundef @__func__.PKCS12_SAFEBAG_create0_pkcs8)
  call void (i32, i32, ptr, ...) @ERR_set_error(i32 noundef 35, i32 noundef 524301, ptr noundef null)
  store ptr null, ptr %2, align 8
  store i32 1, ptr %5, align 4
  br label %18

10:                                               ; preds = %1
  %11 = call ptr @OBJ_nid2obj(i32 noundef 151)
  %12 = load ptr, ptr %4, align 8, !tbaa !3
  %13 = getelementptr inbounds nuw %struct.PKCS12_SAFEBAG_st, ptr %12, i32 0, i32 0
  store ptr %11, ptr %13, align 8, !tbaa !17
  %14 = load ptr, ptr %3, align 8, !tbaa !32
  %15 = load ptr, ptr %4, align 8, !tbaa !3
  %16 = getelementptr inbounds nuw %struct.PKCS12_SAFEBAG_st, ptr %15, i32 0, i32 1
  store ptr %14, ptr %16, align 8, !tbaa !16
  %17 = load ptr, ptr %4, align 8, !tbaa !3
  store ptr %17, ptr %2, align 8
  store i32 1, ptr %5, align 4
  br label %18

18:                                               ; preds = %10, %9
  call void @llvm.lifetime.end.p0(i64 8, ptr %4) #3
  %19 = load ptr, ptr %2, align 8
  ret ptr %19
}

; Function Attrs: nounwind uwtable
define ptr @PKCS12_SAFEBAG_create_pkcs8_encrypt_ex(i32 noundef %0, ptr noundef %1, i32 noundef %2, ptr noundef %3, i32 noundef %4, i32 noundef %5, ptr noundef %6, ptr noundef %7, ptr noundef %8) #0 {
  %10 = alloca i32, align 4
  %11 = alloca ptr, align 8
  %12 = alloca i32, align 4
  %13 = alloca ptr, align 8
  %14 = alloca i32, align 4
  %15 = alloca i32, align 4
  %16 = alloca ptr, align 8
  %17 = alloca ptr, align 8
  %18 = alloca ptr, align 8
  %19 = alloca ptr, align 8
  %20 = alloca ptr, align 8
  %21 = alloca ptr, align 8
  %22 = alloca ptr, align 8
  store i32 %0, ptr %10, align 4, !tbaa !8
  store ptr %1, ptr %11, align 8, !tbaa !22
  store i32 %2, ptr %12, align 4, !tbaa !8
  store ptr %3, ptr %13, align 8, !tbaa !22
  store i32 %4, ptr %14, align 4, !tbaa !8
  store i32 %5, ptr %15, align 4, !tbaa !8
  store ptr %6, ptr %16, align 8, !tbaa !14
  store ptr %7, ptr %17, align 8, !tbaa !20
  store ptr %8, ptr %18, align 8, !tbaa !22
  call void @llvm.lifetime.start.p0(i64 8, ptr %19) #3
  store ptr null, ptr %19, align 8, !tbaa !3
  call void @llvm.lifetime.start.p0(i64 8, ptr %20) #3
  store ptr null, ptr %20, align 8, !tbaa !34
  call void @llvm.lifetime.start.p0(i64 8, ptr %21) #3
  store ptr null, ptr %21, align 8, !tbaa !34
  call void @llvm.lifetime.start.p0(i64 8, ptr %22) #3
  %23 = call i32 @ERR_set_mark()
  %24 = load ptr, ptr %17, align 8, !tbaa !20
  %25 = load i32, ptr %10, align 4, !tbaa !8
  %26 = call ptr @OBJ_nid2sn(i32 noundef %25)
  %27 = load ptr, ptr %18, align 8, !tbaa !22
  %28 = call ptr @EVP_CIPHER_fetch(ptr noundef %24, ptr noundef %26, ptr noundef %27)
  store ptr %28, ptr %21, align 8, !tbaa !34
  store ptr %28, ptr %20, align 8, !tbaa !34
  %29 = load ptr, ptr %20, align 8, !tbaa !34
  %30 = icmp eq ptr %29, null
  br i1 %30, label %31, label %35

31:                                               ; preds = %9
  %32 = load i32, ptr %10, align 4, !tbaa !8
  %33 = call ptr @OBJ_nid2sn(i32 noundef %32)
  %34 = call ptr @EVP_get_cipherbyname(ptr noundef %33)
  store ptr %34, ptr %20, align 8, !tbaa !34
  br label %35

35:                                               ; preds = %31, %9
  %36 = call i32 @ERR_pop_to_mark()
  %37 = load ptr, ptr %20, align 8, !tbaa !34
  %38 = icmp ne ptr %37, null
  br i1 %38, label %39, label %40

39:                                               ; preds = %35
  store i32 -1, ptr %10, align 4, !tbaa !8
  br label %40

40:                                               ; preds = %39, %35
  %41 = load i32, ptr %10, align 4, !tbaa !8
  %42 = load ptr, ptr %20, align 8, !tbaa !34
  %43 = load ptr, ptr %11, align 8, !tbaa !22
  %44 = load i32, ptr %12, align 4, !tbaa !8
  %45 = load ptr, ptr %13, align 8, !tbaa !22
  %46 = load i32, ptr %14, align 4, !tbaa !8
  %47 = load i32, ptr %15, align 4, !tbaa !8
  %48 = load ptr, ptr %16, align 8, !tbaa !14
  %49 = load ptr, ptr %17, align 8, !tbaa !20
  %50 = load ptr, ptr %18, align 8, !tbaa !22
  %51 = call ptr @PKCS8_encrypt_ex(i32 noundef %41, ptr noundef %42, ptr noundef %43, i32 noundef %44, ptr noundef %45, i32 noundef %46, i32 noundef %47, ptr noundef %48, ptr noundef %49, ptr noundef %50)
  store ptr %51, ptr %22, align 8, !tbaa !32
  %52 = load ptr, ptr %22, align 8, !tbaa !32
  %53 = icmp eq ptr %52, null
  br i1 %53, label %54, label %55

54:                                               ; preds = %40
  br label %63

55:                                               ; preds = %40
  %56 = load ptr, ptr %22, align 8, !tbaa !32
  %57 = call ptr @PKCS12_SAFEBAG_create0_pkcs8(ptr noundef %56)
  store ptr %57, ptr %19, align 8, !tbaa !3
  %58 = load ptr, ptr %19, align 8, !tbaa !3
  %59 = icmp eq ptr %58, null
  br i1 %59, label %60, label %62

60:                                               ; preds = %55
  %61 = load ptr, ptr %22, align 8, !tbaa !32
  call void @X509_SIG_free(ptr noundef %61)
  br label %62

62:                                               ; preds = %60, %55
  br label %63

63:                                               ; preds = %62, %54
  %64 = load ptr, ptr %21, align 8, !tbaa !34
  call void @EVP_CIPHER_free(ptr noundef %64)
  %65 = load ptr, ptr %19, align 8, !tbaa !3
  call void @llvm.lifetime.end.p0(i64 8, ptr %22) #3
  call void @llvm.lifetime.end.p0(i64 8, ptr %21) #3
  call void @llvm.lifetime.end.p0(i64 8, ptr %20) #3
  call void @llvm.lifetime.end.p0(i64 8, ptr %19) #3
  ret ptr %65
}