; Function Attrs: nounwind uwtable
define ptr @PKCS12_SAFEBAG_create_pkcs8_encrypt_ex(i32 noundef %0, ptr noundef %1, i32 noundef %2, ptr noundef %3, i32 noundef %4, i32 noundef %5, ptr noundef %6, ptr noundef %7, ptr noundef %8) local_unnamed_addr #0 {
  %10 = tail call i32 @ERR_set_mark() #4
  %11 = tail call ptr @OBJ_nid2sn(i32 noundef %0) #4
  %12 = tail call ptr @EVP_CIPHER_fetch(ptr noundef %7, ptr noundef %11, ptr noundef %8) #4
  %13 = icmp eq ptr %12, null
  br i1 %13, label %14, label %17

14:                                               ; preds = %9
  %15 = tail call ptr @OBJ_nid2sn(i32 noundef %0) #4
  %16 = tail call ptr @EVP_get_cipherbyname(ptr noundef %15) #4
  br label %17

17:                                               ; preds = %14, %9
  %.021 = phi ptr [ %16, %14 ], [ %12, %9 ]
  %18 = tail call i32 @ERR_pop_to_mark() #4
  %.not = icmp eq ptr %.021, null
  %spec.select = select i1 %.not, i32 %0, i32 -1
  %19 = tail call ptr @PKCS8_encrypt_ex(i32 noundef %spec.select, ptr noundef %.021, ptr noundef %1, i32 noundef %2, ptr noundef %3, i32 noundef %4, i32 noundef %5, ptr noundef %6, ptr noundef %7, ptr noundef %8) #4
  %20 = icmp eq ptr %19, null
  br i1 %20, label %27, label %21

21:                                               ; preds = %17
  %22 = tail call ptr @PKCS12_SAFEBAG_new() #4
  %23 = icmp eq ptr %22, null
  br i1 %23, label %26, label %PKCS12_SAFEBAG_create0_pkcs8.exit

PKCS12_SAFEBAG_create0_pkcs8.exit:                ; preds = %21
  %24 = tail call ptr @OBJ_nid2obj(i32 noundef 151) #4
  store ptr %24, ptr %22, align 8, !tbaa !10
  %25 = getelementptr inbounds nuw i8, ptr %22, i64 8
  store ptr %19, ptr %25, align 8, !tbaa !11
  br label %27

26:                                               ; preds = %21
  tail call void @ERR_new() #4
  tail call void @ERR_set_debug(ptr noundef nonnull @.str, i32 noundef 230, ptr noundef nonnull @__func__.PKCS12_SAFEBAG_create0_pkcs8) #4
  tail call void (i32, i32, ptr, ...) @ERR_set_error(i32 noundef 35, i32 noundef 524301, ptr noundef null) #4
  tail call void @X509_SIG_free(ptr noundef nonnull %19) #4
  br label %27

27:                                               ; preds = %PKCS12_SAFEBAG_create0_pkcs8.exit, %26, %17
  %.022 = phi ptr [ null, %17 ], [ null, %26 ], [ %22, %PKCS12_SAFEBAG_create0_pkcs8.exit ]
  tail call void @EVP_CIPHER_free(ptr noundef %12) #4
  ret ptr %.022
}